Certificate:
    Data:
        Version: 3 (0x2)
        Serial Number: 1 (0x1)
        Signature Algorithm: sha256WithRSAEncryption
        Issuer: CN=QUIC Server Root CA
        Validity
            Not Before: Jul  4 13:22:22 2024 GMT
            Not After : Apr 19 13:22:22 2298 GMT
        Subject: C=US, ST=California, L=Mountain View, O=QUIC Server, CN=127.0.0.1
        Subject Public Key Info:
            Public Key Algorithm: rsaEncryption
                Public-Key: (2048 bit)
                Modulus:
                    00:93:8b:3a:01:b7:c9:09:5a:09:a0:d1:e0:7e:99:
                    8c:e0:2d:d9:63:d5:5f:58:bb:fa:85:15:fa:93:1c:
                    c7:b0:f6:7b:df:b3:9e:5f:ac:c9:69:53:f7:db:ea:
                    b6:64:90:da:8d:d5:ce:11:3e:bd:b3:cf:67:91:4c:
                    f1:04:4b:a6:89:89:6d:b1:09:3e:24:2d:88:34:33:
                    44:33:ba:72:d1:95:14:53:b6:b9:a6:fe:1e:1f:11:
                    7f:f8:96:20:86:e4:5b:1d:ca:48:cd:b2:34:dd:53:
                    4e:cf:4d:4d:f2:eb:f0:dd:b0:e7:ff:ee:46:65:3c:
                    f8:ee:4a:ec:58:9d:2d:7c:bb:d0:8a:41:62:27:62:
                    88:b8:49:05:05:74:7b:48:25:ce:28:72:ec:9c:a1:
                    12:d7:ee:6a:47:a6:65:a3:65:e4:3f:8f:5c:63:03:
                    fc:fa:c9:2b:d9:bb:6d:c5:1d:bc:b4:aa:9d:65:91:
                    4d:37:cc:7f:53:9e:21:21:4a:10:1a:11:f7:e1:c6:
                    9d:24:94:7e:44:82:e0:ed:f9:5b:65:08:0a:7f:a9:
                    39:d1:fd:90:d8:99:60:ec:24:f9:f4:99:37:31:01:
                    75:18:8b:cb:dc:91:0f:7e:93:2e:45:61:fe:ee:c3:
                    80:5b:e3:de:9e:d7:08:8b:60:ee:72:2d:74:ba:ad:
                    94:6d
                Exponent: 65537 (0x10001)
        X509v3 extensions:
            X509v3 Basic Constraints: critical
                CA:FALSE
            X509v3 Subject Key Identifier: 
                02:24:5C:1F:75:E7:63:E8:A6:5C:FB:24:0D:6B:5D:0D:F5:44:C4:A4
            X509v3 Authority Key Identifier: 
                ED:8B:62:25:21:B9:41:55:8C:22:28:5D:48:AC:06:A0:DB:31:15:F8
            X509v3 Extended Key Usage: 
                TLS Web Server Authentication, TLS Web Client Authentication
            X509v3 Subject Alternative Name: 
                DNS:www.example.org, DNS:mail.example.org, DNS:mail.example.com, IP Address:127.0.0.1
    Signature Algorithm: sha256WithRSAEncryption
    Signature Value:
        0f:9c:e1:99:53:9a:14:2f:d6:e6:2d:3b:19:a1:e6:db:01:1b:
        b2:54:33:60:fd:c8:21:44:ab:90:9c:5d:24:d8:4d:83:b9:10:
        a2:bd:8d:80:7d:84:93:a6:a6:44:66:05:01:b5:12:68:d6:c6:
        f4:43:6d:02:21:62:9e:79:ff:69:ce:4b:3c:cb:16:00:e4:82:
        c1:1b:f9:7c:cf:a6:56:6f:95:6c:82:97:49:99:02:f3:2f:6d:
        6b:3e:68:9e:96:fe:47:07:c4:dc:d3:0e:4b:bc:19:7c:de:3d:
        01:72:12:36:80:83:d6:3b:46:d0:3e:a8:9c:c5:c0:3c:20:79:
        f4:19:ab:26:85:76:4f:2c:d0:9a:c4:41:8e:96:eb:6e:60:17:
        85:a8:e7:f9:9d:60:6f:ae:79:cc:64:51:a3:48:9a:a7:24:d0:
        e4:b2:67:58:d4:95:aa:61:47:75:58:da:ec:c1:5e:ad:f7:fb:
        22:33:c6:01:9c:61:51:9a:30:6c:95:64:6d:be:8f:b9:3d:ad:
        ec:79:16:28:ed:54:f1:bb:97:f2:24:25:de:33:35:4e:a1:e2:
        c1:87:7e:e8:7a:8a:c7:42:87:de:88:27:8c:b6:0d:f5:fa:a6:
        f3:bd:84:b2:79:83:63:98:c2:44:81:b2:73:5b:ba:f5:de:64:
        7a:16:1c:1b
-----BEGIN CERTIFICATE-----
MIIDtjCCAp6gAwIBAgIBATANBgkqhkiG9w0BAQsFADAeMRwwGgYDVQQDDBNRVUlD
IFNlcnZlciBSb290IENBMCAXDTI0MDcwNDEzMjIyMloYDzIyOTgwNDE5MTMyMjIy
WjBkMQswCQYDVQQGEwJVUzETMBEGA1UECAwKQ2FsaWZvcm5pYTEWMBQGA1UEBwwN
TW91bnRhaW4gVmlldzEUMBIGA1UECgwLUVVJQyBTZXJ2ZXIxEjAQBgNVBAMMCTEy
Ny4wLjAuMTCCASIwDQYJKoZIhvcNAQEBBQADggEPADCCAQoCggEBAJOLOgG3yQla
CaDR4H6ZjOAt2WPVX1i7+oUV+pMcx7D2e9+znl+syWlT99vqtmSQ2o3VzhE+vbPP
Z5FM8QRLpomJbbEJPiQtiDQzRDO6ctGVFFO2uab+Hh8Rf/iWIIbkWx3KSM2yNN1T
Ts9NTfLr8N2w5//uRmU8+O5K7FidLXy70IpBYidiiLhJBQV0e0glzihy7JyhEtfu
akemZaNl5D+PXGMD/PrJK9m7bcUdvLSqnWWRTTfMf1OeISFKEBoR9+HGnSSUfkSC
4O35W2UICn+pOdH9kNiZYOwk+fSZNzEBdRiLy9yRD36TLkVh/u7DgFvj3p7XCItg
7nItdLqtlG0CAwEAAaOBtjCBszAMBgNVHRMBAf8EAjAAMB0GA1UdDgQWBBQCJFwf
dedj6KZc+yQNa10N9UTEpDAfBgNVHSMEGDAWgBTti2IlIblBVYwiKF1IrAag2zEV
+DAdBgNVHSUEFjAUBggrBgEFBQcDAQYIKwYBBQUHAwIwRAYDVR0RBD0wO4IPd3d3
LmV4YW1wbGUub3JnghBtYWlsLmV4YW1wbGUub3JnghBtYWlsLmV4YW1wbGUuY29t
hwR/AAABMA0GCSqGSIb3DQEBCwUAA4IBAQAPnOGZU5oUL9bmLTsZoebbARuyVDNg
/cghRKuQnF0k2E2DuRCivY2AfYSTpqZEZgUBtRJo1sb0Q20CIWKeef9pzks8yxYA
5ILBG/l8z6ZWb5VsgpdJmQLzL21rPmielv5HB8Tc0w5LvBl83j0BchI2gIPWO0bQ
PqicxcA8IHn0GasmhXZPLNCaxEGOlutuYBeFqOf5nWBvrnnMZFGjSJqnJNDksmdY
1JWqYUd1WNrswV6t9/siM8YBnGFRmjBslWRtvo+5Pa3seRYo7VTxu5fyJCXeMzVO
oeLBh37oeorHQofeiCeMtg31+qbzvYSyeYNjmMJEgbJzW7r13mR6Fhwb
-----END CERTIFICATE-----
