Certificate:
    Data:
        Version: 3 (0x2)
        Serial Number:
            43:90:18:68:14:b4:35:1c:a6:86:6a:51:8a:06:28:e7:3b:dc:2f:e5
        Signature Algorithm: sha256WithRSAEncryption
        Issuer: CN = QUIC Server Root CA
        Validity
            Not Before: Jul  4 13:22:22 2024 GMT
            Not After : Apr 19 13:22:22 2298 GMT
        Subject: CN = QUIC Server Root CA
        Subject Public Key Info:
            Public Key Algorithm: rsaEncryption
                Public-Key: (2048 bit)
                Modulus:
                    00:dc:84:ef:e8:d2:48:fe:ab:72:b9:83:f4:6a:6e:
                    c5:10:a2:dd:36:ba:13:b3:a5:ec:14:c4:e8:0b:00:
                    63:66:e3:eb:79:a4:b6:b2:3a:84:d5:1f:87:97:1d:
                    fa:3a:da:2e:63:66:6a:1b:32:9c:ff:38:7b:c3:56:
                    cc:80:a5:61:f8:eb:37:4a:29:48:62:a4:dd:6d:9c:
                    60:3d:39:d7:23:d1:fc:4f:71:36:20:e1:35:94:0f:
                    83:10:cf:b0:c0:80:f9:bb:9d:e4:0d:0a:9b:57:8c:
                    cc:98:12:75:ff:59:d7:8e:f0:23:b3:b2:76:e4:c2:
                    0e:74:01:a2:d4:9a:fa:58:9d:e3:f1:4f:bc:c5:0b:
                    aa:33:ac:ed:42:86:17:7a:d1:b0:a8:81:e9:8d:d8:
                    dd:6a:28:89:72:b3:b3:bf:f9:bc:07:ed:0e:4e:b0:
                    1b:19:e5:13:49:fc:f9:d7:20:5d:e9:c2:e8:46:81:
                    a9:94:f6:38:7b:17:e5:66:38:fd:af:84:e0:2f:c7:
                    1f:e5:92:2f:03:28:d5:53:ec:5c:ef:63:68:69:ac:
                    86:9c:97:05:cc:18:88:e2:f4:ad:a3:04:0c:6c:93:
                    06:8b:6f:89:d1:67:45:02:7c:2a:32:10:f8:8a:4d:
                    b5:a9:d1:85:a5:a2:f2:8e:ae:6b:ec:85:93:d6:03:
                    9a:af
                Exponent: 65537 (0x10001)
        X509v3 extensions:
            X509v3 Basic Constraints: critical
                CA:TRUE
            X509v3 Subject Key Identifier: 
                ED:8B:62:25:21:B9:41:55:8C:22:28:5D:48:AC:06:A0:DB:31:15:F8
            X509v3 Key Usage: critical
                Certificate Sign, CRL Sign
    Signature Algorithm: sha256WithRSAEncryption
    Signature Value:
        cf:f9:23:fe:89:76:c7:0e:05:76:ff:37:b3:76:58:f9:35:0f:
        78:39:86:2c:89:ce:8d:2f:28:8f:99:54:ea:61:20:81:cf:93:
        9b:53:cc:15:28:8c:66:9d:40:f5:f3:70:03:3f:2b:ac:07:7e:
        d4:1d:e0:39:65:42:59:8d:d4:a2:b0:4b:24:21:9b:31:43:fb:
        34:05:bd:9a:79:a4:ac:33:71:10:c8:75:e5:00:df:81:03:30:
        dc:e3:b0:3a:cb:2b:6b:97:a7:22:9f:d0:aa:41:6c:84:35:bb:
        7a:30:8d:43:01:b5:41:9d:a6:e7:67:87:35:1f:e9:77:71:ec:
        8c:0e:07:46:7d:03:2b:bc:ff:cd:b0:c6:74:38:79:5d:0c:7e:
        10:85:f6:7a:2f:b5:ac:53:c5:fb:0e:c4:90:84:3f:c4:a9:96:
        c7:a0:e6:8b:44:e0:74:24:21:d5:31:0e:08:b1:54:fc:b1:c8:
        ed:42:cd:59:b7:22:80:70:49:e9:d3:13:e3:bc:56:c0:12:e6:
        5f:ad:08:55:50:d2:0a:22:96:bb:22:a5:00:38:be:72:86:d8:
        d2:f1:ad:5b:0b:e9:fa:e0:dc:8b:60:5d:af:77:81:a3:30:2d:
        0f:5c:f6:d7:52:44:e2:92:d4:6b:4d:d7:99:d0:7b:ff:e1:bc:
        72:c6:13:75
-----BEGIN CERTIFICATE-----
MIIDDjCCAfagAwIBAgIUQ5AYaBS0NRymhmpRigYo5zvcL+UwDQYJKoZIhvcNAQEL
BQAwHjEcMBoGA1UEAwwTUVVJQyBTZXJ2ZXIgUm9vdCBDQTAgFw0yNDA3MDQxMzIy
MjJaGA8yMjk4MDQxOTEzMjIyMlowHjEcMBoGA1UEAwwTUVVJQyBTZXJ2ZXIgUm9v
dCBDQTCCASIwDQYJKoZIhvcNAQEBBQADggEPADCCAQoCggEBANyE7+jSSP6rcrmD
9GpuxRCi3Ta6E7Ol7BTE6AsAY2bj63mktrI6hNUfh5cd+jraLmNmahsynP84e8NW
zIClYfjrN0opSGKk3W2cYD051yPR/E9xNiDhNZQPgxDPsMCA+bud5A0Km1eMzJgS
df9Z147wI7OyduTCDnQBotSa+lid4/FPvMULqjOs7UKGF3rRsKiB6Y3Y3WooiXKz
s7/5vAftDk6wGxnlE0n8+dcgXenC6EaBqZT2OHsX5WY4/a+E4C/HH+WSLwMo1VPs
XO9jaGmshpyXBcwYiOL0raMEDGyTBotvidFnRQJ8KjIQ+IpNtanRhaWi8o6ua+yF
k9YDmq8CAwEAAaNCMEAwDwYDVR0TAQH/BAUwAwEB/zAdBgNVHQ4EFgQU7YtiJSG5
QVWMIihdSKwGoNsxFfgwDgYDVR0PAQH/BAQDAgEGMA0GCSqGSIb3DQEBCwUAA4IB
AQDP+SP+iXbHDgV2/zezdlj5NQ94OYYsic6NLyiPmVTqYSCBz5ObU8wVKIxmnUD1
83ADPyusB37UHeA5ZUJZjdSisEskIZsxQ/s0Bb2aeaSsM3EQyHXlAN+BAzDc47A6
yytrl6cin9CqQWyENbt6MI1DAbVBnabnZ4c1H+l3ceyMDgdGfQMrvP/NsMZ0OHld
DH4QhfZ6L7WsU8X7DsSQhD/EqZbHoOaLROB0JCHVMQ4IsVT8scjtQs1ZtyKAcEnp
0xPjvFbAEuZfrQhVUNIKIpa7IqUAOL5yhtjS8a1bC+n64NyLYF2vd4GjMC0PXPbX
UkTiktRrTdeZ0Hv/4bxyxhN1
-----END CERTIFICATE-----
